; Function Attrs: mustprogress uwtable
define noundef i32 @_ZNK7Imf_3_218DeepTiledInputFile9numXTilesEi(ptr nocapture noundef nonnull readonly align 8 dereferenceable(16) %this, i32 noundef %lx) local_unnamed_addr #3 align 2 personality ptr @__gxx_personality_v0 {
entry:
  %_iex_throw_s = alloca %"class.std::__cxx11::basic_stringstream", align 8
  %cmp = icmp slt i32 %lx, 0
  br i1 %cmp, label %do.body, label %lor.lhs.false

lor.lhs.false:                                    ; preds = %entry
  %_data = getelementptr inbounds i8, ptr %this, i64 8
  %0 = load ptr, ptr %_data, align 8
  %numXLevels = getelementptr inbounds i8, ptr %0, i64 244
  %1 = load i32, ptr %numXLevels, align 4
  %cmp2.not = icmp sgt i32 %1, %lx
  br i1 %cmp2.not, label %if.end, label %do.body

do.body:                                          ; preds = %entry, %lor.lhs.false
  tail call void @_Z13iex_debugTrapv()
  call void @_ZNSt7__cxx1118basic_stringstreamIcSt11char_traitsIcESaIcEEC1Ev(ptr noundef nonnull align 8 dereferenceable(128) %_iex_throw_s)
  %add.ptr = getelementptr inbounds i8, ptr %_iex_throw_s, i64 16
  %call = invoke noundef nonnull align 8 dereferenceable(8) ptr @_ZStlsISt11char_traitsIcEERSt13basic_ostreamIcT_ES5_PKc(ptr noundef nonnull align 8 dereferenceable(8) %add.ptr, ptr noundef nonnull @.str.43)
          to label %invoke.cont unwind label %lpad

invoke.cont:                                      ; preds = %do.body
  %_data3 = getelementptr inbounds i8, ptr %this, i64 8
  %2 = load ptr, ptr %_data3, align 8
  %_streamData = getelementptr inbounds i8, ptr %2, i64 472
  %3 = load ptr, ptr %_streamData, align 8
  %is = getelementptr inbounds i8, ptr %3, i64 40
  %4 = load ptr, ptr %is, align 8
  %call5 = invoke noundef ptr @_ZNK7Imf_3_27IStream8fileNameEv(ptr noundef nonnull align 8 dereferenceable(40) %4)
          to label %invoke.cont4 unwind label %lpad

invoke.cont4:                                     ; preds = %invoke.cont
  %call7 = invoke noundef nonnull align 8 dereferenceable(8) ptr @_ZStlsISt11char_traitsIcEERSt13basic_ostreamIcT_ES5_PKc(ptr noundef nonnull align 8 dereferenceable(8) %call, ptr noundef %call5)
          to label %invoke.cont6 unwind label %lpad

invoke.cont6:                                     ; preds = %invoke.cont4
  %call9 = invoke noundef nonnull align 8 dereferenceable(8) ptr @_ZStlsISt11char_traitsIcEERSt13basic_ostreamIcT_ES5_PKc(ptr noundef nonnull align 8 dereferenceable(8) %call7, ptr noundef nonnull @.str.44)
          to label %invoke.cont8 unwind label %lpad

invoke.cont8:                                     ; preds = %invoke.cont6
  %exception = call ptr @__cxa_allocate_exception(i64 72) #20
  invoke void @_ZN7Iex_3_26ArgExcC1ERNSt7__cxx1118basic_stringstreamIcSt11char_traitsIcESaIcEEE(ptr noundef nonnull align 8 dereferenceable(72) %exception, ptr noundef nonnull align 8 dereferenceable(128) %_iex_throw_s)
          to label %invoke.cont11 unwind label %lpad10

invoke.cont11:                                    ; preds = %invoke.cont8
  invoke void @__cxa_throw(ptr nonnull %exception, ptr nonnull @_ZTIN7Iex_3_26ArgExcE, ptr nonnull @_ZN7Iex_3_26ArgExcD1Ev) #24
          to label %unreachable unwind label %lpad

lpad:                                             ; preds = %invoke.cont11, %invoke.cont6, %invoke.cont4, %invoke.cont, %do.body
  %5 = landingpad { ptr, i32 }
          cleanup
  br label %ehcleanup

lpad10:                                           ; preds = %invoke.cont8
  %6 = landingpad { ptr, i32 }
          cleanup
  call void @__cxa_free_exception(ptr %exception) #20
  br label %ehcleanup

ehcleanup:                                        ; preds = %lpad10, %lpad
  %.pn = phi { ptr, i32 } [ %5, %lpad ], [ %6, %lpad10 ]
  call void @_ZNSt7__cxx1118basic_stringstreamIcSt11char_traitsIcESaIcEED1Ev(ptr noundef nonnull align 8 dereferenceable(128) %_iex_throw_s) #20
  resume { ptr, i32 } %.pn

if.end:                                           ; preds = %lor.lhs.false
  %numXTiles = getelementptr inbounds i8, ptr %0, i64 256
  %7 = load ptr, ptr %numXTiles, align 8
  %idxprom = zext nneg i32 %lx to i64
  %arrayidx = getelementptr inbounds i32, ptr %7, i64 %idxprom
  %8 = load i32, ptr %arrayidx, align 4
  ret i32 %8

unreachable:                                      ; preds = %invoke.cont11
  unreachable
}